; Function Attrs: null_pointer_is_valid sspstrong uwtable
define internal fastcc void @call_pres_dissector(ptr noundef %0, i32 noundef %1, i16 noundef zeroext %2, ptr noundef %3, ptr noundef %4, ptr noundef %5, ptr noundef %6) unnamed_addr #1 {
  %8 = load ptr, ptr @pres_handle, align 8
  %.not = icmp eq ptr %8, null
  br i1 %.not, label %9, label %14

9:                                                ; preds = %7
  %.not11 = icmp eq ptr %4, null
  br i1 %.not11, label %19, label %10

10:                                               ; preds = %9
  %11 = load i32, ptr @hf_ses_user_data, align 4
  %12 = zext i16 %2 to i32
  %13 = tail call ptr @proto_tree_add_item(ptr noundef %5, i32 noundef %11, ptr noundef %0, i32 noundef %1, i32 noundef %12, i32 noundef 0)
  br label %19

14:                                               ; preds = %7
  %15 = zext i16 %2 to i32
  %16 = tail call ptr @tvb_new_subset_length(ptr noundef %0, i32 noundef %1, i32 noundef %15)
  %17 = load ptr, ptr @pres_handle, align 8
  %18 = tail call i32 @call_dissector_with_data(ptr noundef %17, ptr noundef %16, ptr noundef %3, ptr noundef %4, ptr noundef %6)
  br label %19

19:                                               ; preds = %9, %10, %14
  ret void
}